; Function Attrs: nounwind sspstrong uwtable
define internal i64 @builtin_inline_class_236(ptr readnone captures(none) %0, i64 noundef %1) #2 {
  %3 = and i64 %1, 1
  %.not.i = icmp eq i64 %3, 0
  br i1 %.not.i, label %4, label %rb_int_size.exit

4:                                                ; preds = %2
  %5 = icmp eq i64 %1, 0
  %6 = and i64 %1, 6
  %7 = icmp ne i64 %6, 0
  %8 = or i1 %5, %7
  br i1 %8, label %rb_int_size.exit, label %rbimpl_RB_TYPE_P_fastpath.exit.i

rbimpl_RB_TYPE_P_fastpath.exit.i:                 ; preds = %4
  %9 = inttoptr i64 %1 to ptr
  %10 = load i64, ptr %9, align 8, !tbaa !11
  %11 = and i64 %10, 31
  %12 = icmp eq i64 %11, 10
  br i1 %12, label %13, label %rb_int_size.exit

13:                                               ; preds = %rbimpl_RB_TYPE_P_fastpath.exit.i
  %14 = tail call i64 @rb_big_size_m(i64 noundef %1) #26
  br label %rb_int_size.exit

rb_int_size.exit:                                 ; preds = %2, %4, %rbimpl_RB_TYPE_P_fastpath.exit.i, %13
  %.0.i = phi i64 [ %14, %13 ], [ 4, %rbimpl_RB_TYPE_P_fastpath.exit.i ], [ 17, %2 ], [ 4, %4 ]
  ret i64 %.0.i
}